target datalayout = "e-m:e-p270:32:32-p271:32:32-p272:64:64-i64:64-i128:128-f80:128-n8:16:32:64-S128"
target triple = "x86_64-pc-linux-gnu"

@splash_screen = internal global ptr null, align 8
@progress_text = internal global ptr null, align 8
@remaining_text = internal global ptr null, align 8
@remaining_box = internal global ptr null, align 8
@showing_remaining = internal global i32 0, align 4
@.str.19 = private unnamed_addr constant [10 x i8] c" %4d:%02d\00", align 1
@.str.20 = private unnamed_addr constant [9 x i8] c"   --:--\00", align 1

; Function Attrs: nounwind uwtable
define internal void @_process_all_gui_events() #0 {
  %1 = alloca i32, align 4
  call void @llvm.lifetime.start.p0(i64 4, ptr %1) #8
  store i32 0, ptr %1, align 4, !tbaa !11
  br label %2

2:                                                ; preds = %7, %0
  %3 = load i32, ptr %1, align 4, !tbaa !11
  %4 = icmp slt i32 %3, 5
  br i1 %4, label %6, label %5

5:                                                ; preds = %2
  call void @llvm.lifetime.end.p0(i64 4, ptr %1) #8
  br label %10

6:                                                ; preds = %2
  call void @g_usleep(i64 noundef 1000)
  call void (...) @dt_gui_process_events()
  br label %7

7:                                                ; preds = %6
  %8 = load i32, ptr %1, align 4, !tbaa !11
  %9 = add nsw i32 %8, 1
  store i32 %9, ptr %1, align 4, !tbaa !11
  br label %2

10:                                               ; preds = %5
  ret void
}

; Function Attrs: nounwind uwtable
define void @darktable_splash_screen_set_progress_percent(ptr noundef %0, double noundef %1, double noundef %2) #0 {
  %4 = alloca ptr, align 8
  %5 = alloca double, align 8
  %6 = alloca double, align 8
  %7 = alloca i32, align 4
  %8 = alloca ptr, align 8
  %9 = alloca double, align 8
  %10 = alloca double, align 8
  %11 = alloca i32, align 4
  %12 = alloca i32, align 4
  %13 = alloca ptr, align 8
  store ptr %0, ptr %4, align 8, !tbaa !15
  store double %1, ptr %5, align 8, !tbaa !59
  store double %2, ptr %6, align 8, !tbaa !59
  %14 = load ptr, ptr @splash_screen, align 8, !tbaa !13
  %15 = icmp ne ptr %14, null
  br i1 %15, label %16, label %66

16:                                               ; preds = %3
  call void @llvm.lifetime.start.p0(i64 4, ptr %7) #8
  %17 = load double, ptr %5, align 8, !tbaa !59
  %18 = fmul reassoc nsz arcp contract afn double 1.000000e+02, %17
  %19 = call reassoc nsz arcp contract afn double @llvm.round.f64(double %18)
  %20 = fptosi double %19 to i32
  store i32 %20, ptr %7, align 4, !tbaa !11
  call void @llvm.lifetime.start.p0(i64 8, ptr %8) #8
  %21 = load ptr, ptr %4, align 8, !tbaa !15
  %22 = load i32, ptr %7, align 4, !tbaa !11
  %23 = call noalias ptr (ptr, ...) @g_strdup_printf(ptr noundef %21, i32 noundef %22)
  store ptr %23, ptr %8, align 8, !tbaa !15
  %24 = load ptr, ptr @progress_text, align 8, !tbaa !13
  %25 = call i64 @gtk_label_get_type() #9
  %26 = call ptr @g_type_check_instance_cast(ptr noundef %24, i64 noundef %25)
  %27 = load ptr, ptr %8, align 8, !tbaa !15
  call void @gtk_label_set_text(ptr noundef %26, ptr noundef %27)
  %28 = load ptr, ptr %8, align 8, !tbaa !15
  call void @g_free(ptr noundef %28)
  %29 = load double, ptr %6, align 8, !tbaa !59
  %30 = fcmp reassoc nsz arcp contract afn oge double %29, 2.000000e+00
  br i1 %30, label %34, label %31

31:                                               ; preds = %16
  %32 = load double, ptr %5, align 8, !tbaa !59
  %33 = fcmp reassoc nsz arcp contract afn ogt double %32, 1.000000e-02
  br i1 %33, label %34, label %60

34:                                               ; preds = %31, %16
  call void @llvm.lifetime.start.p0(i64 8, ptr %9) #8
  %35 = load double, ptr %6, align 8, !tbaa !59
  %36 = load double, ptr %5, align 8, !tbaa !59
  %37 = fdiv reassoc nsz arcp contract afn double %35, %36
  store double %37, ptr %9, align 8, !tbaa !59
  call void @llvm.lifetime.start.p0(i64 8, ptr %10) #8
  %38 = load double, ptr %9, align 8, !tbaa !59
  %39 = load double, ptr %6, align 8, !tbaa !59
  %40 = fsub reassoc nsz arcp contract afn double %38, %39
  %41 = fadd reassoc nsz arcp contract afn double %40, 5.000000e-01
  store double %41, ptr %10, align 8, !tbaa !59
  call void @llvm.lifetime.start.p0(i64 4, ptr %11) #8
  %42 = load double, ptr %10, align 8, !tbaa !59
  %43 = fdiv reassoc nsz arcp contract afn double %42, 6.000000e+01
  %44 = fptosi double %43 to i32
  store i32 %44, ptr %11, align 4, !tbaa !11
  call void @llvm.lifetime.start.p0(i64 4, ptr %12) #8
  %45 = load double, ptr %10, align 8, !tbaa !59
  %46 = load i32, ptr %11, align 4, !tbaa !11
  %47 = mul nsw i32 60, %46
  %48 = sitofp i32 %47 to double
  %49 = fsub reassoc nsz arcp contract afn double %45, %48
  %50 = fptosi double %49 to i32
  store i32 %50, ptr %12, align 4, !tbaa !11
  call void @llvm.lifetime.start.p0(i64 8, ptr %13) #8
  %51 = load i32, ptr %11, align 4, !tbaa !11
  %52 = load i32, ptr %12, align 4, !tbaa !11
  %53 = call noalias ptr (ptr, ...) @g_strdup_printf(ptr noundef @.str.19, i32 noundef %51, i32 noundef %52)
  store ptr %53, ptr %13, align 8, !tbaa !15
  %54 = load ptr, ptr @remaining_text, align 8, !tbaa !13
  %55 = call i64 @gtk_label_get_type() #9
  %56 = call ptr @g_type_check_instance_cast(ptr noundef %54, i64 noundef %55)
  %57 = load ptr, ptr %13, align 8, !tbaa !15
  call void @gtk_label_set_text(ptr noundef %56, ptr noundef %57)
  %58 = load ptr, ptr %13, align 8, !tbaa !15
  call void @g_free(ptr noundef %58)
  %59 = load ptr, ptr @remaining_box, align 8, !tbaa !13
  call void @gtk_widget_queue_draw(ptr noundef %59)
  call void @llvm.lifetime.end.p0(i64 8, ptr %13) #8
  call void @llvm.lifetime.end.p0(i64 4, ptr %12) #8
  call void @llvm.lifetime.end.p0(i64 4, ptr %11) #8
  call void @llvm.lifetime.end.p0(i64 8, ptr %10) #8
  call void @llvm.lifetime.end.p0(i64 8, ptr %9) #8
  br label %64

60:                                               ; preds = %31
  %61 = load ptr, ptr @remaining_text, align 8, !tbaa !13
  %62 = call i64 @gtk_label_get_type() #9
  %63 = call ptr @g_type_check_instance_cast(ptr noundef %61, i64 noundef %62)
  call void @gtk_label_set_text(ptr noundef %63, ptr noundef @.str.20)
  br label %64

64:                                               ; preds = %60, %34
  %65 = load ptr, ptr @splash_screen, align 8, !tbaa !13
  call void @gtk_widget_show_all(ptr noundef %65)
  store i32 1, ptr @showing_remaining, align 4, !tbaa !11
  call void @_process_all_gui_events()
  call void @llvm.lifetime.end.p0(i64 8, ptr %8) #8
  call void @llvm.lifetime.end.p0(i64 4, ptr %7) #8
  br label %66

66:                                               ; preds = %64, %3
  ret void
}