; Function Attrs: nounwind uwtable
define void @darktable_splash_screen_set_progress_percent(ptr noundef %0, double noundef %1, double noundef %2) local_unnamed_addr #0 {
  %4 = load ptr, ptr @splash_screen, align 8, !tbaa !6
  %.not = icmp eq ptr %4, null
  br i1 %.not, label %_process_all_gui_events.exit, label %5

5:                                                ; preds = %3
  %6 = fmul reassoc nsz arcp contract afn double %1, 1.000000e+02
  %7 = tail call reassoc nsz arcp contract afn double @llvm.round.f64(double %6)
  %8 = fptosi double %7 to i32
  %9 = tail call noalias ptr (ptr, ...) @g_strdup_printf(ptr noundef %0, i32 noundef %8) #7
  %10 = load ptr, ptr @progress_text, align 8, !tbaa !6
  %11 = tail call i64 @gtk_label_get_type() #8
  %12 = tail call ptr @g_type_check_instance_cast(ptr noundef %10, i64 noundef %11) #7
  tail call void @gtk_label_set_text(ptr noundef %12, ptr noundef %9) #7
  tail call void @g_free(ptr noundef %9) #7
  %13 = fcmp reassoc nsz arcp contract afn oge double %2, 2.000000e+00
  %14 = fcmp reassoc nsz arcp contract afn ogt double %1, 1.000000e-02
  %or.cond = or i1 %14, %13
  br i1 %or.cond, label %15, label %29

15:                                               ; preds = %5
  %16 = fdiv reassoc nsz arcp contract afn double %2, %1
  %17 = fsub reassoc nsz arcp contract afn double %16, %2
  %18 = fadd reassoc nsz arcp contract afn double %17, 5.000000e-01
  %19 = fmul reassoc nsz arcp contract afn double %18, 0x3F91111111111111
  %20 = fptosi double %19 to i32
  %21 = mul nsw i32 %20, 60
  %22 = sitofp i32 %21 to double
  %23 = fsub reassoc nsz arcp contract afn double %18, %22
  %24 = fptosi double %23 to i32
  %25 = tail call noalias ptr (ptr, ...) @g_strdup_printf(ptr noundef nonnull @.str.19, i32 noundef %20, i32 noundef %24) #7
  %26 = load ptr, ptr @remaining_text, align 8, !tbaa !6
  %27 = tail call ptr @g_type_check_instance_cast(ptr noundef %26, i64 noundef %11) #7
  tail call void @gtk_label_set_text(ptr noundef %27, ptr noundef %25) #7
  tail call void @g_free(ptr noundef %25) #7
  %28 = load ptr, ptr @remaining_box, align 8, !tbaa !6
  tail call void @gtk_widget_queue_draw(ptr noundef %28) #7
  br label %32

29:                                               ; preds = %5
  %30 = load ptr, ptr @remaining_text, align 8, !tbaa !6
  %31 = tail call ptr @g_type_check_instance_cast(ptr noundef %30, i64 noundef %11) #7
  tail call void @gtk_label_set_text(ptr noundef %31, ptr noundef nonnull @.str.20) #7
  br label %32

32:                                               ; preds = %29, %15
  %33 = load ptr, ptr @splash_screen, align 8, !tbaa !6
  tail call void @gtk_widget_show_all(ptr noundef %33) #7
  store i1 true, ptr @showing_remaining, align 4
  br label %34

34:                                               ; preds = %34, %32
  %.02.i = phi i32 [ 0, %32 ], [ %35, %34 ]
  tail call void @g_usleep(i64 noundef 1000) #7
  tail call void (...) @dt_gui_process_events() #7
  %35 = add nuw nsw i32 %.02.i, 1
  %exitcond.not.i = icmp eq i32 %35, 5
  br i1 %exitcond.not.i, label %_process_all_gui_events.exit, label %34

_process_all_gui_events.exit:                     ; preds = %34, %3
  ret void
}